; Function Attrs: mustprogress nofree norecurse nosync nounwind memory(read, argmem: readwrite, inaccessiblemem: none) uwtable
define noundef i32 @_ZNK10OpenSubdiv6v3_6_03Bfr12Tessellation8GetRatesEPi(ptr nocapture noundef nonnull readonly align 8 dereferenceable(64) %0, ptr nocapture noundef writeonly %1) local_unnamed_addr #10 align 2 {
  %3 = getelementptr inbounds nuw i8, ptr %0, i64 2
  %4 = load i16, ptr %3, align 2
  %5 = zext i16 %4 to i32
  %6 = getelementptr inbounds nuw i8, ptr %0, i64 16
  %7 = load i32, ptr %6, align 8
  %.sroa.speculated19 = tail call i32 @llvm.smin.i32(i32 %7, i32 %5)
  %8 = sub i32 %7, %5
  %9 = icmp sgt i32 %.sroa.speculated19, 0
  br i1 %9, label %.lr.ph, label %.preheader

.lr.ph:                                           ; preds = %2
  %10 = getelementptr inbounds nuw i8, ptr %0, i64 40
  %wide.trip.count = zext nneg i32 %.sroa.speculated19 to i64
  br label %14

.preheader:                                       ; preds = %14, %2
  %11 = icmp sgt i32 %8, 0
  br i1 %11, label %.lr.ph26, label %._crit_edge

.lr.ph26:                                         ; preds = %.preheader
  %12 = getelementptr inbounds nuw i8, ptr %0, i64 32
  %13 = zext i16 %4 to i64
  %wide.trip.count31 = zext nneg i32 %8 to i64
  %invariant.gep = getelementptr inbounds i32, ptr %1, i64 %13
  br label %19

14:                                               ; preds = %.lr.ph, %14
  %indvars.iv = phi i64 [ 0, %.lr.ph ], [ %indvars.iv.next, %14 ]
  %15 = load ptr, ptr %10, align 8
  %16 = getelementptr inbounds i32, ptr %15, i64 %indvars.iv
  %17 = load i32, ptr %16, align 4
  %18 = getelementptr inbounds i32, ptr %1, i64 %indvars.iv
  store i32 %17, ptr %18, align 4
  %indvars.iv.next = add nuw nsw i64 %indvars.iv, 1
  %exitcond.not = icmp eq i64 %indvars.iv.next, %wide.trip.count
  br i1 %exitcond.not, label %.preheader, label %14, !llvm.loop !34

19:                                               ; preds = %.lr.ph26, %19
  %indvars.iv28 = phi i64 [ 0, %.lr.ph26 ], [ %indvars.iv.next29, %19 ]
  %20 = icmp ne i64 %indvars.iv28, 0
  %21 = zext i1 %20 to i64
  %22 = getelementptr inbounds [2 x i32], ptr %12, i64 0, i64 %21
  %23 = load i32, ptr %22, align 4
  %gep = getelementptr inbounds i32, ptr %invariant.gep, i64 %indvars.iv28
  store i32 %23, ptr %gep, align 4
  %indvars.iv.next29 = add nuw nsw i64 %indvars.iv28, 1
  %exitcond32.not = icmp eq i64 %indvars.iv.next29, %wide.trip.count31
  br i1 %exitcond32.not, label %._crit_edge, label %19, !llvm.loop !35

._crit_edge:                                      ; preds = %19, %.preheader
  %24 = load i32, ptr %6, align 8
  ret i32 %24
}